; Function Attrs: noinline norecurse nounwind uwtable
define internal void @_ZNK5faiss24ProductAdditiveQuantizer22compute_unpacked_codesEPKfPimS2_.omp_outlined(ptr noalias noundef readonly captures(none) %0, ptr noalias readnone captures(none) %1, ptr noundef nonnull readonly align 8 captures(none) dereferenceable(8) %2, ptr noundef nonnull readonly align 8 captures(none) dereferenceable(24) %3, ptr noundef nonnull readonly align 8 captures(none) dereferenceable(8) %4, ptr noundef nonnull readonly align 8 captures(none) dereferenceable(8) %5, ptr noundef readonly captures(none) %6, ptr noundef nonnull readonly align 8 captures(none) dereferenceable(8) %7) #17 {
  %9 = alloca i64, align 8
  %10 = alloca i64, align 8
  %11 = alloca i64, align 8
  %12 = alloca i32, align 4
  %13 = load i64, ptr %2, align 8, !tbaa !4
  %.not = icmp eq i64 %13, 0
  br i1 %.not, label %39, label %14

14:                                               ; preds = %8
  %15 = add i64 %13, -1
  call void @llvm.lifetime.start.p0(i64 8, ptr nonnull %9) #18
  store i64 0, ptr %9, align 8, !tbaa !4
  call void @llvm.lifetime.start.p0(i64 8, ptr nonnull %10) #18
  store i64 %15, ptr %10, align 8, !tbaa !4
  call void @llvm.lifetime.start.p0(i64 8, ptr nonnull %11) #18
  store i64 1, ptr %11, align 8, !tbaa !4
  call void @llvm.lifetime.start.p0(i64 4, ptr nonnull %12) #18
  store i32 0, ptr %12, align 4, !tbaa !60
  %16 = load i32, ptr %0, align 4, !tbaa !60
  call void @__kmpc_for_static_init_8u(ptr nonnull @1, i32 %16, i32 34, ptr nonnull %12, ptr nonnull %9, ptr nonnull %10, ptr nonnull %11, i64 1, i64 1)
  %17 = load i64, ptr %10, align 8, !tbaa !4
  %18 = call i64 @llvm.umin.i64(i64 %17, i64 %15)
  store i64 %18, ptr %10, align 8, !tbaa !4
  %19 = load i64, ptr %9, align 8, !tbaa !4
  %.not18 = icmp ugt i64 %19, %18
  br i1 %.not18, label %._crit_edge, label %.lr.ph

.lr.ph:                                           ; preds = %14
  %20 = getelementptr inbounds nuw i8, ptr %6, i64 8
  br label %21

21:                                               ; preds = %.lr.ph, %21
  %.017 = phi i64 [ %19, %.lr.ph ], [ %35, %21 ]
  %22 = load ptr, ptr %3, align 8, !tbaa !53
  %23 = load ptr, ptr %4, align 8, !tbaa !55
  %24 = getelementptr inbounds nuw i8, ptr %23, i64 8
  %25 = load i64, ptr %24, align 8, !tbaa !57
  %26 = mul i64 %25, %.017
  %27 = getelementptr inbounds nuw float, ptr %22, i64 %26
  %28 = load ptr, ptr %5, align 8, !tbaa !8
  %29 = load i64, ptr %20, align 8, !tbaa !57
  %30 = mul i64 %29, %.017
  %31 = getelementptr inbounds nuw float, ptr %28, i64 %30
  %32 = load i64, ptr %7, align 8, !tbaa !4
  %33 = getelementptr inbounds nuw float, ptr %31, i64 %32
  %34 = shl i64 %25, 2
  call void @llvm.memcpy.p0.p0.i64(ptr align 4 %27, ptr align 4 %33, i64 %34, i1 false)
  %35 = add nuw i64 %.017, 1
  %36 = load i64, ptr %10, align 8, !tbaa !4
  %37 = add i64 %36, 1
  %38 = icmp ult i64 %35, %37
  br i1 %38, label %21, label %._crit_edge

._crit_edge:                                      ; preds = %21, %14
  call void @__kmpc_for_static_fini(ptr nonnull @1, i32 %16)
  call void @llvm.lifetime.end.p0(i64 4, ptr nonnull %12) #18
  call void @llvm.lifetime.end.p0(i64 8, ptr nonnull %11) #18
  call void @llvm.lifetime.end.p0(i64 8, ptr nonnull %10) #18
  call void @llvm.lifetime.end.p0(i64 8, ptr nonnull %9) #18
  br label %39

39:                                               ; preds = %._crit_edge, %8
  ret void
}